; ModuleID = '8/1176.cpp'
source_filename = "8/1176.cpp"
target datalayout = "e-m:e-p270:32:32-p271:32:32-p272:64:64-i64:64-f80:128-n8:16:32:64-S128"
target triple = "x86_64-pc-linux-gnu"

%"class.std::ios_base::Init" = type { i8 }
%"class.std::basic_istream" = type { i32 (...)**, i64, %"class.std::basic_ios" }
%"class.std::basic_ios" = type { %"class.std::ios_base", %"class.std::basic_ostream"*, i8, i8, %"class.std::basic_streambuf"*, %"class.std::ctype"*, %"class.std::num_put"*, %"class.std::num_get"* }
%"class.std::ios_base" = type { i32 (...)**, i64, i64, i32, i32, i32, %"struct.std::ios_base::_Callback_list"*, %"struct.std::ios_base::_Words", [8 x %"struct.std::ios_base::_Words"], i32, %"struct.std::ios_base::_Words"*, %"class.std::locale" }
%"struct.std::ios_base::_Callback_list" = type { %"struct.std::ios_base::_Callback_list"*, void (i32, %"class.std::ios_base"*, i32)*, i32, i32 }
%"struct.std::ios_base::_Words" = type { i8*, i64 }
%"class.std::locale" = type { %"class.std::locale::_Impl"* }
%"class.std::locale::_Impl" = type { i32, %"class.std::locale::facet"**, i64, %"class.std::locale::facet"**, i8** }
%"class.std::locale::facet" = type <{ i32 (...)**, i32, [4 x i8] }>
%"class.std::basic_ostream" = type { i32 (...)**, %"class.std::basic_ios" }
%"class.std::basic_streambuf" = type { i32 (...)**, i8*, i8*, i8*, i8*, i8*, i8*, %"class.std::locale" }
%"class.std::ctype" = type <{ %"class.std::locale::facet.base", [4 x i8], %struct.__locale_struct*, i8, [7 x i8], i32*, i32*, i16*, i8, [256 x i8], [256 x i8], i8, [6 x i8] }>
%"class.std::locale::facet.base" = type <{ i32 (...)**, i32 }>
%struct.__locale_struct = type { [13 x %struct.__locale_data*], i16*, i32*, i32*, [13 x i8*] }
%struct.__locale_data = type opaque
%"class.std::num_put" = type { %"class.std::locale::facet.base", [4 x i8] }
%"class.std::num_get" = type { %"class.std::locale::facet.base", [4 x i8] }

@_ZStL8__ioinit = internal global %"class.std::ios_base::Init" zeroinitializer, align 1
@__dso_handle = external hidden global i8
@shu1 = dso_local global i32 0, align 4
@shu2 = dso_local global i32 0, align 4
@sum = dso_local global [100 x i32] zeroinitializer, align 16
@sum2 = dso_local global [100 x i32] zeroinitializer, align 16
@_ZSt3cin = external dso_local global %"class.std::basic_istream", align 8
@_ZSt4cout = external dso_local global %"class.std::basic_ostream", align 8
@.str = private unnamed_addr constant [2 x i8] c" \00", align 1
@llvm.global_ctors = appending global [1 x { i32, void ()*, i8* }] [{ i32, void ()*, i8* } { i32 65535, void ()* @_GLOBAL__sub_I_1176.cpp, i8* null }]

; Function Attrs: noinline uwtable
define internal void @__cxx_global_var_init() #0 section ".text.startup" {
  call void @_ZNSt8ios_base4InitC1Ev(%"class.std::ios_base::Init"* @_ZStL8__ioinit)
  %1 = call i32 @__cxa_atexit(void (i8*)* bitcast (void (%"class.std::ios_base::Init"*)* @_ZNSt8ios_base4InitD1Ev to void (i8*)*), i8* getelementptr inbounds (%"class.std::ios_base::Init", %"class.std::ios_base::Init"* @_ZStL8__ioinit, i32 0, i32 0), i8* @__dso_handle) #3
  ret void
}

declare dso_local void @_ZNSt8ios_base4InitC1Ev(%"class.std::ios_base::Init"*) unnamed_addr #1

; Function Attrs: nounwind
declare dso_local void @_ZNSt8ios_base4InitD1Ev(%"class.std::ios_base::Init"*) unnamed_addr #2

; Function Attrs: nounwind
declare dso_local i32 @__cxa_atexit(void (i8*)*, i8*, i8*) #3

; Function Attrs: noinline nounwind uwtable
define dso_local i32 @_Z4compPKvS0_(i8* %0, i8* %1) #4 {
  %3 = alloca i8*, align 8
  %4 = alloca i8*, align 8
  store i8* %0, i8** %3, align 8
  store i8* %1, i8** %4, align 8
  %5 = load i8*, i8** %3, align 8
  %6 = bitcast i8* %5 to i32*
  %7 = load i32, i32* %6, align 4
  %8 = load i8*, i8** %4, align 8
  %9 = bitcast i8* %8 to i32*
  %10 = load i32, i32* %9, align 4
  %11 = sub nsw i32 %7, %10
  ret i32 %11
}

; Function Attrs: noinline uwtable
define dso_local void @_Z5inputv() #0 {
  %1 = call dereferenceable(280) %"class.std::basic_istream"* @_ZNSirsERi(%"class.std::basic_istream"* @_ZSt3cin, i32* dereferenceable(4) @shu1)
  %2 = call dereferenceable(280) %"class.std::basic_istream"* @_ZNSirsERi(%"class.std::basic_istream"* %1, i32* dereferenceable(4) @shu2)
  ret void
}

declare dso_local dereferenceable(280) %"class.std::basic_istream"* @_ZNSirsERi(%"class.std::basic_istream"*, i32* dereferenceable(4)) #1

; Function Attrs: noinline uwtable
define dso_local void @_Z6input1v() #0 {
  %1 = alloca i32, align 4
  store i32 0, i32* %1, align 4
  br label %2

2:                                                ; preds = %11, %0
  %3 = load i32, i32* %1, align 4
  %4 = load i32, i32* @shu1, align 4
  %5 = icmp slt i32 %3, %4
  br i1 %5, label %6, label %14

6:                                                ; preds = %2
  %7 = load i32, i32* %1, align 4
  %8 = sext i32 %7 to i64
  %9 = getelementptr inbounds [100 x i32], [100 x i32]* @sum, i64 0, i64 %8
  %10 = call dereferenceable(280) %"class.std::basic_istream"* @_ZNSirsERi(%"class.std::basic_istream"* @_ZSt3cin, i32* dereferenceable(4) %9)
  br label %11

11:                                               ; preds = %6
  %12 = load i32, i32* %1, align 4
  %13 = add nsw i32 %12, 1
  store i32 %13, i32* %1, align 4
  br label %2

14:                                               ; preds = %2
  store i32 0, i32* %1, align 4
  br label %15

15:                                               ; preds = %24, %14
  %16 = load i32, i32* %1, align 4
  %17 = load i32, i32* @shu2, align 4
  %18 = icmp slt i32 %16, %17
  br i1 %18, label %19, label %27

19:                                               ; preds = %15
  %20 = load i32, i32* %1, align 4
  %21 = sext i32 %20 to i64
  %22 = getelementptr inbounds [100 x i32], [100 x i32]* @sum2, i64 0, i64 %21
  %23 = call dereferenceable(280) %"class.std::basic_istream"* @_ZNSirsERi(%"class.std::basic_istream"* @_ZSt3cin, i32* dereferenceable(4) %22)
  br label %24

24:                                               ; preds = %19
  %25 = load i32, i32* %1, align 4
  %26 = add nsw i32 %25, 1
  store i32 %26, i32* %1, align 4
  br label %15

27:                                               ; preds = %15
  ret void
}

; Function Attrs: noinline uwtable
define dso_local void @_Z3paiv() #0 {
  %1 = load i32, i32* @shu1, align 4
  %2 = sext i32 %1 to i64
  call void @qsort(i8* bitcast ([100 x i32]* @sum to i8*), i64 %2, i64 4, i32 (i8*, i8*)* @_Z4compPKvS0_)
  %3 = load i32, i32* @shu2, align 4
  %4 = sext i32 %3 to i64
  call void @qsort(i8* bitcast ([100 x i32]* @sum2 to i8*), i64 %4, i64 4, i32 (i8*, i8*)* @_Z4compPKvS0_)
  ret void
}

declare dso_local void @qsort(i8*, i64, i64, i32 (i8*, i8*)*) #1

; Function Attrs: noinline uwtable
define dso_local void @_Z5printv() #0 {
  %1 = alloca i32, align 4
  %2 = alloca i32, align 4
  store i32 0, i32* %2, align 4
  store i32 0, i32* %1, align 4
  br label %3

3:                                                ; preds = %26, %0
  %4 = load i32, i32* %1, align 4
  %5 = load i32, i32* @shu1, align 4
  %6 = icmp slt i32 %4, %5
  br i1 %6, label %7, label %29

7:                                                ; preds = %3
  %8 = load i32, i32* %2, align 4
  %9 = icmp eq i32 %8, 0
  br i1 %9, label %10, label %18

10:                                               ; preds = %7
  %11 = load i32, i32* %1, align 4
  %12 = sext i32 %11 to i64
  %13 = getelementptr inbounds [100 x i32], [100 x i32]* @sum, i64 0, i64 %12
  %14 = load i32, i32* %13, align 4
  %15 = call dereferenceable(272) %"class.std::basic_ostream"* @_ZNSolsEi(%"class.std::basic_ostream"* @_ZSt4cout, i32 %14)
  %16 = load i32, i32* %2, align 4
  %17 = add nsw i32 %16, 1
  store i32 %17, i32* %2, align 4
  br label %25

18:                                               ; preds = %7
  %19 = call dereferenceable(272) %"class.std::basic_ostream"* @_ZStlsISt11char_traitsIcEERSt13basic_ostreamIcT_ES5_PKc(%"class.std::basic_ostream"* dereferenceable(272) @_ZSt4cout, i8* getelementptr inbounds ([2 x i8], [2 x i8]* @.str, i64 0, i64 0))
  %20 = load i32, i32* %1, align 4
  %21 = sext i32 %20 to i64
  %22 = getelementptr inbounds [100 x i32], [100 x i32]* @sum, i64 0, i64 %21
  %23 = load i32, i32* %22, align 4
  %24 = call dereferenceable(272) %"class.std::basic_ostream"* @_ZNSolsEi(%"class.std::basic_ostream"* %19, i32 %23)
  br label %25

25:                                               ; preds = %18, %10
  br label %26

26:                                               ; preds = %25
  %27 = load i32, i32* %1, align 4
  %28 = add nsw i32 %27, 1
  store i32 %28, i32* %1, align 4
  br label %3

29:                                               ; preds = %3
  store i32 0, i32* %1, align 4
  br label %30

30:                                               ; preds = %53, %29
  %31 = load i32, i32* %1, align 4
  %32 = load i32, i32* @shu2, align 4
  %33 = icmp slt i32 %31, %32
  br i1 %33, label %34, label %56

34:                                               ; preds = %30
  %35 = load i32, i32* %2, align 4
  %36 = icmp eq i32 %35, 0
  br i1 %36, label %37, label %45

37:                                               ; preds = %34
  %38 = load i32, i32* %1, align 4
  %39 = sext i32 %38 to i64
  %40 = getelementptr inbounds [100 x i32], [100 x i32]* @sum2, i64 0, i64 %39
  %41 = load i32, i32* %40, align 4
  %42 = call dereferenceable(272) %"class.std::basic_ostream"* @_ZNSolsEi(%"class.std::basic_ostream"* @_ZSt4cout, i32 %41)
  %43 = load i32, i32* %2, align 4
  %44 = add nsw i32 %43, 1
  store i32 %44, i32* %2, align 4
  br label %52

45:                                               ; preds = %34
  %46 = call dereferenceable(272) %"class.std::basic_ostream"* @_ZStlsISt11char_traitsIcEERSt13basic_ostreamIcT_ES5_PKc(%"class.std::basic_ostream"* dereferenceable(272) @_ZSt4cout, i8* getelementptr inbounds ([2 x i8], [2 x i8]* @.str, i64 0, i64 0))
  %47 = load i32, i32* %1, align 4
  %48 = sext i32 %47 to i64
  %49 = getelementptr inbounds [100 x i32], [100 x i32]* @sum2, i64 0, i64 %48
  %50 = load i32, i32* %49, align 4
  %51 = call dereferenceable(272) %"class.std::basic_ostream"* @_ZNSolsEi(%"class.std::basic_ostream"* %46, i32 %50)
  br label %52

52:                                               ; preds = %45, %37
  br label %53

53:                                               ; preds = %52
  %54 = load i32, i32* %1, align 4
  %55 = add nsw i32 %54, 1
  store i32 %55, i32* %1, align 4
  br label %30

56:                                               ; preds = %30
  ret void
}

declare dso_local dereferenceable(272) %"class.std::basic_ostream"* @_ZNSolsEi(%"class.std::basic_ostream"*, i32) #1

declare dso_local dereferenceable(272) %"class.std::basic_ostream"* @_ZStlsISt11char_traitsIcEERSt13basic_ostreamIcT_ES5_PKc(%"class.std::basic_ostream"* dereferenceable(272), i8*) #1

; Function Attrs: noinline norecurse uwtable
define dso_local i32 @main() #5 {
  call void @_Z5inputv()
  call void @_Z6input1v()
  call void @_Z3paiv()
  call void @_Z5printv()
  ret i32 0
}

; Function Attrs: noinline uwtable
define internal void @_GLOBAL__sub_I_1176.cpp() #0 section ".text.startup" {
  call void @__cxx_global_var_init()
  ret void
}


!llvm.module.flags = !{!0}
!llvm.ident = !{!1}

!0 = !{i32 1, !"wchar_size", i32 4}
!1 = !{!"clang version 10.0.0-4ubuntu1 "}
