; ModuleID = 'source-C-CXX/7/1176.cpp'
source_filename = "source-C-CXX/7/1176.cpp"
target datalayout = "e-m:e-p270:32:32-p271:32:32-p272:64:64-i64:64-f80:128-n8:16:32:64-S128"
target triple = "x86_64-pc-linux-gnu"

%"class.std::ios_base::Init" = type { i8 }
%"class.std::basic_istream" = type { i32 (...)**, i64, %"class.std::basic_ios" }
%"class.std::basic_ios" = type { %"class.std::ios_base", %"class.std::basic_ostream"*, i8, i8, %"class.std::basic_streambuf"*, %"class.std::ctype"*, %"class.std::num_put"*, %"class.std::num_get"* }
%"class.std::ios_base" = type { i32 (...)**, i64, i64, i32, i32, i32, %"struct.std::ios_base::_Callback_list"*, %"struct.std::ios_base::_Words", [8 x %"struct.std::ios_base::_Words"], i32, %"struct.std::ios_base::_Words"*, %"class.std::locale" }
%"struct.std::ios_base::_Callback_list" = type { %"struct.std::ios_base::_Callback_list"*, void (i32, %"class.std::ios_base"*, i32)*, i32, i32 }
%"struct.std::ios_base::_Words" = type { i8*, i64 }
%"class.std::locale" = type { %"class.std::locale::_Impl"* }
%"class.std::locale::_Impl" = type { i32, %"class.std::locale::facet"**, i64, %"class.std::locale::facet"**, i8** }
%"class.std::locale::facet" = type <{ i32 (...)**, i32, [4 x i8] }>
%"class.std::basic_ostream" = type { i32 (...)**, %"class.std::basic_ios" }
%"class.std::basic_streambuf" = type { i32 (...)**, i8*, i8*, i8*, i8*, i8*, i8*, %"class.std::locale" }
%"class.std::ctype" = type <{ %"class.std::locale::facet.base", [4 x i8], %struct.__locale_struct*, i8, [7 x i8], i32*, i32*, i16*, i8, [256 x i8], [256 x i8], i8, [6 x i8] }>
%"class.std::locale::facet.base" = type <{ i32 (...)**, i32 }>
%struct.__locale_struct = type { [13 x %struct.__locale_data*], i16*, i32*, i32*, [13 x i8*] }
%struct.__locale_data = type opaque
%"class.std::num_put" = type { %"class.std::locale::facet.base", [4 x i8] }
%"class.std::num_get" = type { %"class.std::locale::facet.base", [4 x i8] }

@_ZStL8__ioinit = internal global %"class.std::ios_base::Init" zeroinitializer, align 1
@__dso_handle = external hidden global i8
@shu1 = dso_local global i32 0, align 4
@shu2 = dso_local global i32 0, align 4
@sum = dso_local global [100 x i32] zeroinitializer, align 16
@sum2 = dso_local global [100 x i32] zeroinitializer, align 16
@_ZSt3cin = external global %"class.std::basic_istream", align 8
@_ZSt4cout = external global %"class.std::basic_ostream", align 8
@.str = private unnamed_addr constant [2 x i8] c" \00", align 1
@llvm.global_ctors = appending global [1 x { i32, void ()*, i8* }] [{ i32, void ()*, i8* } { i32 65535, void ()* @_GLOBAL__sub_I_1176.cpp, i8* null }]

declare void @_ZNSt8ios_base4InitC1Ev(%"class.std::ios_base::Init"* nonnull align 1 dereferenceable(1)) unnamed_addr #0

; Function Attrs: nounwind
declare void @_ZNSt8ios_base4InitD1Ev(%"class.std::ios_base::Init"* nonnull align 1 dereferenceable(1)) unnamed_addr #1

; Function Attrs: nofree nounwind
declare i32 @__cxa_atexit(void (i8*)*, i8*, i8*) local_unnamed_addr #2

; Function Attrs: mustprogress nofree norecurse nosync nounwind readonly sspstrong uwtable willreturn
define dso_local i32 @_Z4compPKvS0_(i8* nocapture readonly %0, i8* nocapture readonly %1) #3 {
  %3 = bitcast i8* %0 to i32*
  %4 = load i32, i32* %3, align 4, !tbaa !5
  %5 = bitcast i8* %1 to i32*
  %6 = load i32, i32* %5, align 4, !tbaa !5
  %7 = sub nsw i32 %4, %6
  ret i32 %7
}

; Function Attrs: mustprogress sspstrong uwtable
define dso_local void @_Z5inputv() local_unnamed_addr #4 {
  %1 = tail call nonnull align 8 dereferenceable(16) %"class.std::basic_istream"* @_ZNSirsERi(%"class.std::basic_istream"* nonnull align 8 dereferenceable(16) @_ZSt3cin, i32* nonnull align 4 dereferenceable(4) @shu1)
  %2 = tail call nonnull align 8 dereferenceable(16) %"class.std::basic_istream"* @_ZNSirsERi(%"class.std::basic_istream"* nonnull align 8 dereferenceable(16) %1, i32* nonnull align 4 dereferenceable(4) @shu2)
  ret void
}

declare nonnull align 8 dereferenceable(16) %"class.std::basic_istream"* @_ZNSirsERi(%"class.std::basic_istream"* nonnull align 8 dereferenceable(16), i32* nonnull align 4 dereferenceable(4)) local_unnamed_addr #0

; Function Attrs: mustprogress sspstrong uwtable
define dso_local void @_Z6input1v() local_unnamed_addr #4 {
  %1 = load i32, i32* @shu1, align 4, !tbaa !5
  %2 = icmp sgt i32 %1, 0
  br i1 %2, label %6, label %3

3:                                                ; preds = %6, %0
  %4 = load i32, i32* @shu2, align 4, !tbaa !5
  %5 = icmp sgt i32 %4, 0
  br i1 %5, label %14, label %22

6:                                                ; preds = %0, %6
  %7 = phi i64 [ %10, %6 ], [ 0, %0 ]
  %8 = getelementptr inbounds [100 x i32], [100 x i32]* @sum, i64 0, i64 %7
  %9 = tail call nonnull align 8 dereferenceable(16) %"class.std::basic_istream"* @_ZNSirsERi(%"class.std::basic_istream"* nonnull align 8 dereferenceable(16) @_ZSt3cin, i32* nonnull align 4 dereferenceable(4) %8)
  %10 = add nuw nsw i64 %7, 1
  %11 = load i32, i32* @shu1, align 4, !tbaa !5
  %12 = sext i32 %11 to i64
  %13 = icmp slt i64 %10, %12
  br i1 %13, label %6, label %3, !llvm.loop !9

14:                                               ; preds = %3, %14
  %15 = phi i64 [ %18, %14 ], [ 0, %3 ]
  %16 = getelementptr inbounds [100 x i32], [100 x i32]* @sum2, i64 0, i64 %15
  %17 = tail call nonnull align 8 dereferenceable(16) %"class.std::basic_istream"* @_ZNSirsERi(%"class.std::basic_istream"* nonnull align 8 dereferenceable(16) @_ZSt3cin, i32* nonnull align 4 dereferenceable(4) %16)
  %18 = add nuw nsw i64 %15, 1
  %19 = load i32, i32* @shu2, align 4, !tbaa !5
  %20 = sext i32 %19 to i64
  %21 = icmp slt i64 %18, %20
  br i1 %21, label %14, label %22, !llvm.loop !11

22:                                               ; preds = %14, %3
  ret void
}

; Function Attrs: mustprogress nofree sspstrong uwtable
define dso_local void @_Z3paiv() local_unnamed_addr #5 {
  %1 = load i32, i32* @shu1, align 4, !tbaa !5
  %2 = sext i32 %1 to i64
  tail call void @qsort(i8* bitcast ([100 x i32]* @sum to i8*), i64 %2, i64 4, i32 (i8*, i8*)* nonnull @_Z4compPKvS0_)
  %3 = load i32, i32* @shu2, align 4, !tbaa !5
  %4 = sext i32 %3 to i64
  tail call void @qsort(i8* bitcast ([100 x i32]* @sum2 to i8*), i64 %4, i64 4, i32 (i8*, i8*)* nonnull @_Z4compPKvS0_)
  ret void
}

; Function Attrs: nofree
declare void @qsort(i8* noundef, i64 noundef, i64 noundef, i32 (i8*, i8*)* nocapture noundef) local_unnamed_addr #6

; Function Attrs: mustprogress sspstrong uwtable
define dso_local void @_Z5printv() local_unnamed_addr #4 {
  %1 = load i32, i32* @shu1, align 4, !tbaa !5
  %2 = icmp sgt i32 %1, 0
  br i1 %2, label %3, label %14

3:                                                ; preds = %0
  %4 = load i32, i32* getelementptr inbounds ([100 x i32], [100 x i32]* @sum, i64 0, i64 0), align 16, !tbaa !5
  %5 = tail call nonnull align 8 dereferenceable(8) %"class.std::basic_ostream"* @_ZNSolsEi(%"class.std::basic_ostream"* nonnull align 8 dereferenceable(8) @_ZSt4cout, i32 %4)
  %6 = load i32, i32* @shu1, align 4, !tbaa !5
  %7 = icmp sgt i32 %6, 1
  br i1 %7, label %25, label %11

8:                                                ; preds = %25
  %9 = load i32, i32* @shu2, align 4, !tbaa !5
  %10 = icmp sgt i32 %9, 0
  br i1 %10, label %17, label %45

11:                                               ; preds = %3
  %12 = load i32, i32* @shu2, align 4, !tbaa !5
  %13 = icmp sgt i32 %12, 0
  br i1 %13, label %18, label %45

14:                                               ; preds = %0
  %15 = load i32, i32* @shu2, align 4, !tbaa !5
  %16 = icmp sgt i32 %15, 0
  br i1 %16, label %20, label %45

17:                                               ; preds = %8
  br i1 %2, label %18, label %20

18:                                               ; preds = %11, %17
  %19 = tail call nonnull align 8 dereferenceable(8) %"class.std::basic_ostream"* @_ZSt16__ostream_insertIcSt11char_traitsIcEERSt13basic_ostreamIT_T0_ES6_PKS3_l(%"class.std::basic_ostream"* nonnull align 8 dereferenceable(8) @_ZSt4cout, i8* nonnull getelementptr inbounds ([2 x i8], [2 x i8]* @.str, i64 0, i64 0), i64 1)
  br label %20

20:                                               ; preds = %17, %14, %18
  %21 = load i32, i32* getelementptr inbounds ([100 x i32], [100 x i32]* @sum2, i64 0, i64 0), align 16, !tbaa !5
  %22 = tail call nonnull align 8 dereferenceable(8) %"class.std::basic_ostream"* @_ZNSolsEi(%"class.std::basic_ostream"* nonnull align 8 dereferenceable(8) @_ZSt4cout, i32 %21)
  %23 = load i32, i32* @shu2, align 4, !tbaa !5
  %24 = icmp sgt i32 %23, 1
  br i1 %24, label %35, label %45

25:                                               ; preds = %3, %25
  %26 = phi i64 [ %32, %25 ], [ 1, %3 ]
  %27 = tail call nonnull align 8 dereferenceable(8) %"class.std::basic_ostream"* @_ZSt16__ostream_insertIcSt11char_traitsIcEERSt13basic_ostreamIT_T0_ES6_PKS3_l(%"class.std::basic_ostream"* nonnull align 8 dereferenceable(8) @_ZSt4cout, i8* nonnull getelementptr inbounds ([2 x i8], [2 x i8]* @.str, i64 0, i64 0), i64 1)
  %28 = getelementptr inbounds [100 x i32], [100 x i32]* @sum, i64 0, i64 %26
  %29 = load i32, i32* %28, align 4, !tbaa !5
  %30 = tail call nonnull align 8 dereferenceable(8) %"class.std::basic_ostream"* @_ZNSolsEi(%"class.std::basic_ostream"* nonnull align 8 dereferenceable(8) @_ZSt4cout, i32 %29)
  %31 = load i32, i32* @shu1, align 4, !tbaa !5
  %32 = add nuw nsw i64 %26, 1
  %33 = sext i32 %31 to i64
  %34 = icmp slt i64 %32, %33
  br i1 %34, label %25, label %8, !llvm.loop !12

35:                                               ; preds = %20, %35
  %36 = phi i64 [ %42, %35 ], [ 1, %20 ]
  %37 = tail call nonnull align 8 dereferenceable(8) %"class.std::basic_ostream"* @_ZSt16__ostream_insertIcSt11char_traitsIcEERSt13basic_ostreamIT_T0_ES6_PKS3_l(%"class.std::basic_ostream"* nonnull align 8 dereferenceable(8) @_ZSt4cout, i8* nonnull getelementptr inbounds ([2 x i8], [2 x i8]* @.str, i64 0, i64 0), i64 1)
  %38 = getelementptr inbounds [100 x i32], [100 x i32]* @sum2, i64 0, i64 %36
  %39 = load i32, i32* %38, align 4, !tbaa !5
  %40 = tail call nonnull align 8 dereferenceable(8) %"class.std::basic_ostream"* @_ZNSolsEi(%"class.std::basic_ostream"* nonnull align 8 dereferenceable(8) @_ZSt4cout, i32 %39)
  %41 = load i32, i32* @shu2, align 4, !tbaa !5
  %42 = add nuw nsw i64 %36, 1
  %43 = sext i32 %41 to i64
  %44 = icmp slt i64 %42, %43
  br i1 %44, label %35, label %45, !llvm.loop !14

45:                                               ; preds = %35, %20, %11, %14, %8
  ret void
}

declare nonnull align 8 dereferenceable(8) %"class.std::basic_ostream"* @_ZNSolsEi(%"class.std::basic_ostream"* nonnull align 8 dereferenceable(8), i32) local_unnamed_addr #0

; Function Attrs: mustprogress norecurse sspstrong uwtable
define dso_local i32 @main() local_unnamed_addr #7 {
  %1 = tail call nonnull align 8 dereferenceable(16) %"class.std::basic_istream"* @_ZNSirsERi(%"class.std::basic_istream"* nonnull align 8 dereferenceable(16) @_ZSt3cin, i32* nonnull align 4 dereferenceable(4) @shu1)
  %2 = tail call nonnull align 8 dereferenceable(16) %"class.std::basic_istream"* @_ZNSirsERi(%"class.std::basic_istream"* nonnull align 8 dereferenceable(16) %1, i32* nonnull align 4 dereferenceable(4) @shu2)
  %3 = load i32, i32* @shu1, align 4, !tbaa !5
  %4 = icmp sgt i32 %3, 0
  br i1 %4, label %9, label %5

5:                                                ; preds = %9, %0
  %6 = phi i32 [ %3, %0 ], [ %14, %9 ]
  %7 = load i32, i32* @shu2, align 4, !tbaa !5
  %8 = icmp sgt i32 %7, 0
  br i1 %8, label %17, label %27

9:                                                ; preds = %0, %9
  %10 = phi i64 [ %13, %9 ], [ 0, %0 ]
  %11 = getelementptr inbounds [100 x i32], [100 x i32]* @sum, i64 0, i64 %10
  %12 = tail call nonnull align 8 dereferenceable(16) %"class.std::basic_istream"* @_ZNSirsERi(%"class.std::basic_istream"* nonnull align 8 dereferenceable(16) @_ZSt3cin, i32* nonnull align 4 dereferenceable(4) %11)
  %13 = add nuw nsw i64 %10, 1
  %14 = load i32, i32* @shu1, align 4, !tbaa !5
  %15 = sext i32 %14 to i64
  %16 = icmp slt i64 %13, %15
  br i1 %16, label %9, label %5, !llvm.loop !9

17:                                               ; preds = %5, %17
  %18 = phi i64 [ %21, %17 ], [ 0, %5 ]
  %19 = getelementptr inbounds [100 x i32], [100 x i32]* @sum2, i64 0, i64 %18
  %20 = tail call nonnull align 8 dereferenceable(16) %"class.std::basic_istream"* @_ZNSirsERi(%"class.std::basic_istream"* nonnull align 8 dereferenceable(16) @_ZSt3cin, i32* nonnull align 4 dereferenceable(4) %19)
  %21 = add nuw nsw i64 %18, 1
  %22 = load i32, i32* @shu2, align 4, !tbaa !5
  %23 = sext i32 %22 to i64
  %24 = icmp slt i64 %21, %23
  br i1 %24, label %17, label %25, !llvm.loop !11

25:                                               ; preds = %17
  %26 = load i32, i32* @shu1, align 4, !tbaa !5
  br label %27

27:                                               ; preds = %25, %5
  %28 = phi i32 [ %26, %25 ], [ %6, %5 ]
  %29 = sext i32 %28 to i64
  tail call void @qsort(i8* bitcast ([100 x i32]* @sum to i8*), i64 %29, i64 4, i32 (i8*, i8*)* nonnull @_Z4compPKvS0_)
  %30 = load i32, i32* @shu2, align 4, !tbaa !5
  %31 = sext i32 %30 to i64
  tail call void @qsort(i8* bitcast ([100 x i32]* @sum2 to i8*), i64 %31, i64 4, i32 (i8*, i8*)* nonnull @_Z4compPKvS0_)
  tail call void @_Z5printv()
  ret i32 0
}

declare nonnull align 8 dereferenceable(8) %"class.std::basic_ostream"* @_ZSt16__ostream_insertIcSt11char_traitsIcEERSt13basic_ostreamIT_T0_ES6_PKS3_l(%"class.std::basic_ostream"* nonnull align 8 dereferenceable(8), i8*, i64) local_unnamed_addr #0

; Function Attrs: sspstrong uwtable
define internal void @_GLOBAL__sub_I_1176.cpp() #8 section ".text.startup" {
  tail call void @_ZNSt8ios_base4InitC1Ev(%"class.std::ios_base::Init"* nonnull align 1 dereferenceable(1) @_ZStL8__ioinit)
  %1 = tail call i32 @__cxa_atexit(void (i8*)* bitcast (void (%"class.std::ios_base::Init"*)* @_ZNSt8ios_base4InitD1Ev to void (i8*)*), i8* getelementptr inbounds (%"class.std::ios_base::Init", %"class.std::ios_base::Init"* @_ZStL8__ioinit, i64 0, i32 0), i8* nonnull @__dso_handle) #9
  ret void
}


!llvm.module.flags = !{!0, !1, !2, !3}
!llvm.ident = !{!4}

!0 = !{i32 1, !"wchar_size", i32 4}
!1 = !{i32 7, !"PIC Level", i32 2}
!2 = !{i32 7, !"PIE Level", i32 2}
!3 = !{i32 7, !"uwtable", i32 1}
!4 = !{!"clang version 13.0.0"}
!5 = !{!6, !6, i64 0}
!6 = !{!"int", !7, i64 0}
!7 = !{!"omnipotent char", !8, i64 0}
!8 = !{!"Simple C++ TBAA"}
!9 = distinct !{!9, !10}
!10 = !{!"llvm.loop.mustprogress"}
!11 = distinct !{!11, !10}
!12 = distinct !{!12, !10, !13}
!13 = !{!"llvm.loop.peeled.count", i32 1}
!14 = distinct !{!14, !10, !13}
